; Function Attrs: mustprogress nounwind uwtable
define dso_local noundef range(i32 2, 257) i32 @_ZNK4llvm19AArch64RegisterInfo23getLocalAddressRegisterERKNS_15MachineFunctionE(ptr noundef nonnull align 8 dereferenceable(320) %0, ptr noundef nonnull align 8 dereferenceable(1041) %1) local_unnamed_addr #2 align 2 {
  %3 = getelementptr inbounds nuw i8, ptr %1, i64 556
  %4 = load i8, ptr %3, align 4
  %5 = trunc i8 %4 to i1
  br i1 %5, label %12, label %6

6:                                                ; preds = %2
  %7 = getelementptr inbounds nuw i8, ptr %1, i64 48
  %8 = load ptr, ptr %7, align 8
  %9 = getelementptr inbounds nuw i8, ptr %8, i64 36
  %10 = load i8, ptr %9, align 4
  %11 = trunc i8 %10 to i1
  br i1 %11, label %12, label %32

12:                                               ; preds = %6, %2
  %13 = load ptr, ptr %0, align 8
  %14 = getelementptr inbounds i8, ptr %13, i64 480
  %15 = load ptr, ptr %14, align 8
  %16 = tail call noundef zeroext i1 %15(ptr noundef nonnull align 8 dereferenceable(308) %0, ptr noundef nonnull align 8 dereferenceable(1041) %1) #18
  br i1 %16, label %_ZNK4llvm18TargetRegisterInfo19hasStackRealignmentERKNS_15MachineFunctionE.exit, label %_ZNK4llvm18TargetRegisterInfo19hasStackRealignmentERKNS_15MachineFunctionE.exit.thread

_ZNK4llvm18TargetRegisterInfo19hasStackRealignmentERKNS_15MachineFunctionE.exit: ; preds = %12
  %17 = load ptr, ptr %0, align 8
  %18 = getelementptr inbounds i8, ptr %17, i64 472
  %19 = load ptr, ptr %18, align 8
  %20 = tail call noundef zeroext i1 %19(ptr noundef nonnull align 8 dereferenceable(308) %0, ptr noundef nonnull align 8 dereferenceable(1041) %1) #18
  br i1 %20, label %32, label %_ZNK4llvm18TargetRegisterInfo19hasStackRealignmentERKNS_15MachineFunctionE.exit.thread

_ZNK4llvm18TargetRegisterInfo19hasStackRealignmentERKNS_15MachineFunctionE.exit.thread: ; preds = %12, %_ZNK4llvm18TargetRegisterInfo19hasStackRealignmentERKNS_15MachineFunctionE.exit
  %21 = getelementptr inbounds nuw i8, ptr %1, i64 16
  %22 = load ptr, ptr %21, align 8
  %23 = load ptr, ptr %22, align 8
  %24 = getelementptr inbounds i8, ptr %23, i64 136
  %25 = load ptr, ptr %24, align 8
  %26 = tail call noundef ptr %25(ptr noundef nonnull align 8 dereferenceable(288) %22) #18
  %27 = load ptr, ptr %26, align 8
  %28 = getelementptr inbounds i8, ptr %27, i64 200
  %29 = load ptr, ptr %28, align 8
  %30 = tail call noundef zeroext i1 %29(ptr noundef nonnull align 8 dereferenceable(21) %26, ptr noundef nonnull align 8 dereferenceable(1041) %1) #18
  %31 = select i1 %30, i32 2, i32 8
  br label %32

32:                                               ; preds = %_ZNK4llvm18TargetRegisterInfo19hasStackRealignmentERKNS_15MachineFunctionE.exit, %6, %_ZNK4llvm18TargetRegisterInfo19hasStackRealignmentERKNS_15MachineFunctionE.exit.thread
  %.0 = phi i32 [ %31, %_ZNK4llvm18TargetRegisterInfo19hasStackRealignmentERKNS_15MachineFunctionE.exit.thread ], [ 8, %6 ], [ 256, %_ZNK4llvm18TargetRegisterInfo19hasStackRealignmentERKNS_15MachineFunctionE.exit ]
  ret i32 %.0
}